	.file	"strcpy.c"
	.text
	.section	.rodata
.LC1:
	.string	"%s %lf\n"
.LC2:
	.string	"strawberry"
	.text
	.globl	main
	.type	main, @function
main:
.LFB0:
	.cfi_startproc
	endbr64
	pushq	%rbp
	.cfi_def_cfa_offset 16
	.cfi_offset 6, -16
	movq	%rsp, %rbp
	.cfi_def_cfa_register 6
	subq	$48, %rsp
	movl	%edi, -36(%rbp)
	movq	%rsi, -48(%rbp)
	movq	%fs:40, %rax
	movq	%rax, -8(%rbp)
	xorl	%eax, %eax
	movq	$0, -32(%rbp)
	movq	$0, -24(%rbp)
	movl	$0, -16(%rbp)
	movq	.LC0(%rip), %rdx
	leaq	-32(%rbp), %rax
	movq	%rdx, %xmm0
	movq	%rax, %rsi
	leaq	.LC1(%rip), %rax
	movq	%rax, %rdi
	movl	$1, %eax
	call	printf@PLT
	leaq	-32(%rbp), %rax
	leaq	.LC2(%rip), %rdx
	movq	%rdx, %rsi
	movq	%rax, %rdi
	call	user_strcpy
	leaq	-32(%rbp), %rax
	movq	%rax, %rdi
	call	puts@PLT
	leaq	-32(%rbp), %rax
	leaq	.LC2(%rip), %rdx
	movq	%rdx, %rsi
	movq	%rax, %rdi
	call	user_strcpy
	movq	%rax, %rdi
	call	puts@PLT
	movl	$0, %eax
	movq	-8(%rbp), %rdx
	subq	%fs:40, %rdx
	je	.L3
	call	__stack_chk_fail@PLT
.L3:
	leave
	.cfi_def_cfa 7, 8
	ret
	.cfi_endproc
.LFE0:
	.size	main, .-main
	.globl	user_strcpy
	.type	user_strcpy, @function
user_strcpy:
.LFB1:
	.cfi_startproc
	endbr64
	pushq	%rbp
	.cfi_def_cfa_offset 16
	.cfi_offset 6, -16
	movq	%rsp, %rbp
	.cfi_def_cfa_register 6
	movq	%rdi, -24(%rbp)
	movq	%rsi, -32(%rbp)
	movq	-24(%rbp), %rax
	movq	%rax, -8(%rbp)
	movl	$0, -12(%rbp)
	jmp	.L5
.L6:
	movl	-12(%rbp), %eax
	movslq	%eax, %rdx
	movq	-32(%rbp), %rax
	addq	%rdx, %rax
	movl	-12(%rbp), %edx
	movslq	%edx, %rcx
	movq	-24(%rbp), %rdx
	addq	%rcx, %rdx
	movzbl	(%rax), %eax
	movb	%al, (%rdx)
	addl	$1, -12(%rbp)
.L5:
	movl	-12(%rbp), %eax
	movslq	%eax, %rdx
	movq	-32(%rbp), %rax
	addq	%rdx, %rax
	movzbl	(%rax), %eax
	testb	%al, %al
	jne	.L6
	movl	-12(%rbp), %eax
	movslq	%eax, %rdx
	movq	-24(%rbp), %rax
	addq	%rdx, %rax
	movb	$0, (%rax)
	movq	-8(%rbp), %rax
	popq	%rbp
	.cfi_def_cfa 7, 8
	ret
	.cfi_endproc
.LFE1:
	.size	user_strcpy, .-user_strcpy
	.section	.rodata
	.align 8
.LC0:
	.long	-266631570
	.long	1074340345
	.ident	"GCC: (Ubuntu 11.4.0-1ubuntu1~22.04) 11.4.0"
	.section	.note.GNU-stack,"",@progbits
	.section	.note.gnu.property,"a"
	.align 8
	.long	1f - 0f
	.long	4f - 1f
	.long	5
0:
	.string	"GNU"
1:
	.align 8
	.long	0xc0000002
	.long	3f - 2f
2:
	.long	0x3
3:
	.align 8
4:
